target datalayout = "e-m:e-p270:32:32-p271:32:32-p272:64:64-i64:64-i128:128-f80:128-n8:16:32:64-S128"
target triple = "x86_64-pc-linux-gnu"

%struct.AVAES = type { [15 x %union.av_aes_block], [2 x %union.av_aes_block], i32, ptr }
%union.av_aes_block = type { [2 x i64] }

@sbox = internal global [256 x i8] zeroinitializer, align 16
@enc_multbl = internal global [4 x [256 x i32]] zeroinitializer, align 16

; Function Attrs: inlinehint nounwind uwtable
define internal void @addkey_d(ptr noundef %0, ptr noundef %1, ptr noundef %2) #5 {
  %4 = alloca ptr, align 8
  %5 = alloca ptr, align 8
  %6 = alloca ptr, align 8
  store ptr %0, ptr %4, align 8, !tbaa !9
  store ptr %1, ptr %5, align 8, !tbaa !30
  store ptr %2, ptr %6, align 8, !tbaa !30
  %7 = load ptr, ptr %5, align 8, !tbaa !30
  %8 = getelementptr inbounds [2 x i64], ptr %7, i64 0, i64 0
  %9 = load i64, ptr %8, align 8, !tbaa !16
  %10 = load ptr, ptr %6, align 8, !tbaa !30
  %11 = getelementptr inbounds [2 x i64], ptr %10, i64 0, i64 0
  %12 = load i64, ptr %11, align 8, !tbaa !16
  %13 = xor i64 %9, %12
  %14 = load ptr, ptr %4, align 8, !tbaa !9
  store i64 %13, ptr %14, align 1, !tbaa !16
  %15 = load ptr, ptr %5, align 8, !tbaa !30
  %16 = getelementptr inbounds [2 x i64], ptr %15, i64 0, i64 1
  %17 = load i64, ptr %16, align 8, !tbaa !16
  %18 = load ptr, ptr %6, align 8, !tbaa !30
  %19 = getelementptr inbounds [2 x i64], ptr %18, i64 0, i64 1
  %20 = load i64, ptr %19, align 8, !tbaa !16
  %21 = xor i64 %17, %20
  %22 = load ptr, ptr %4, align 8, !tbaa !9
  %23 = getelementptr inbounds i8, ptr %22, i64 8
  store i64 %21, ptr %23, align 1, !tbaa !16
  ret void
}

; Function Attrs: inlinehint nounwind uwtable
define internal void @addkey_s(ptr noundef %0, ptr noundef %1, ptr noundef %2) #5 {
  %4 = alloca ptr, align 8
  %5 = alloca ptr, align 8
  %6 = alloca ptr, align 8
  store ptr %0, ptr %4, align 8, !tbaa !30
  store ptr %1, ptr %5, align 8, !tbaa !9
  store ptr %2, ptr %6, align 8, !tbaa !30
  %7 = load ptr, ptr %5, align 8, !tbaa !9
  %8 = load i64, ptr %7, align 1, !tbaa !16
  %9 = load ptr, ptr %6, align 8, !tbaa !30
  %10 = getelementptr inbounds [2 x i64], ptr %9, i64 0, i64 0
  %11 = load i64, ptr %10, align 8, !tbaa !16
  %12 = xor i64 %8, %11
  %13 = load ptr, ptr %4, align 8, !tbaa !30
  %14 = getelementptr inbounds [2 x i64], ptr %13, i64 0, i64 0
  store i64 %12, ptr %14, align 8, !tbaa !16
  %15 = load ptr, ptr %5, align 8, !tbaa !9
  %16 = getelementptr inbounds i8, ptr %15, i64 8
  %17 = load i64, ptr %16, align 1, !tbaa !16
  %18 = load ptr, ptr %6, align 8, !tbaa !30
  %19 = getelementptr inbounds [2 x i64], ptr %18, i64 0, i64 1
  %20 = load i64, ptr %19, align 8, !tbaa !16
  %21 = xor i64 %17, %20
  %22 = load ptr, ptr %4, align 8, !tbaa !30
  %23 = getelementptr inbounds [2 x i64], ptr %22, i64 0, i64 1
  store i64 %21, ptr %23, align 8, !tbaa !16
  ret void
}

; Function Attrs: nounwind uwtable
define internal void @aes_encrypt(ptr noundef %0, ptr noundef %1, ptr noundef %2, i32 noundef %3, ptr noundef %4, i32 noundef %5) #0 {
  %7 = alloca ptr, align 8
  %8 = alloca ptr, align 8
  %9 = alloca ptr, align 8
  %10 = alloca i32, align 4
  %11 = alloca ptr, align 8
  %12 = alloca i32, align 4
  store ptr %0, ptr %7, align 8, !tbaa !4
  store ptr %1, ptr %8, align 8, !tbaa !9
  store ptr %2, ptr %9, align 8, !tbaa !9
  store i32 %3, ptr %10, align 4, !tbaa !11
  store ptr %4, ptr %11, align 8, !tbaa !9
  store i32 %5, ptr %12, align 4, !tbaa !11
  br label %13

13:                                               ; preds = %51, %6
  %14 = load i32, ptr %10, align 4, !tbaa !11
  %15 = add nsw i32 %14, -1
  store i32 %15, ptr %10, align 4, !tbaa !11
  %16 = icmp ne i32 %14, 0
  br i1 %16, label %17, label %56

17:                                               ; preds = %13
  %18 = load ptr, ptr %7, align 8, !tbaa !4
  %19 = getelementptr inbounds nuw %struct.AVAES, ptr %18, i32 0, i32 1
  %20 = getelementptr inbounds [2 x %union.av_aes_block], ptr %19, i64 0, i64 1
  %21 = load ptr, ptr %9, align 8, !tbaa !9
  %22 = load ptr, ptr %7, align 8, !tbaa !4
  %23 = getelementptr inbounds nuw %struct.AVAES, ptr %22, i32 0, i32 0
  %24 = load i32, ptr %12, align 4, !tbaa !11
  %25 = sext i32 %24 to i64
  %26 = getelementptr inbounds [15 x %union.av_aes_block], ptr %23, i64 0, i64 %25
  call void @addkey_s(ptr noundef %20, ptr noundef %21, ptr noundef %26)
  %27 = load ptr, ptr %11, align 8, !tbaa !9
  %28 = icmp ne ptr %27, null
  br i1 %28, label %29, label %37

29:                                               ; preds = %17
  %30 = load ptr, ptr %7, align 8, !tbaa !4
  %31 = getelementptr inbounds nuw %struct.AVAES, ptr %30, i32 0, i32 1
  %32 = getelementptr inbounds [2 x %union.av_aes_block], ptr %31, i64 0, i64 1
  %33 = load ptr, ptr %11, align 8, !tbaa !9
  %34 = load ptr, ptr %7, align 8, !tbaa !4
  %35 = getelementptr inbounds nuw %struct.AVAES, ptr %34, i32 0, i32 1
  %36 = getelementptr inbounds [2 x %union.av_aes_block], ptr %35, i64 0, i64 1
  call void @addkey_s(ptr noundef %32, ptr noundef %33, ptr noundef %36)
  br label %37

37:                                               ; preds = %29, %17
  %38 = load ptr, ptr %7, align 8, !tbaa !4
  call void @aes_crypt(ptr noundef %38, i32 noundef 2, ptr noundef @sbox, ptr noundef @enc_multbl)
  %39 = load ptr, ptr %8, align 8, !tbaa !9
  %40 = load ptr, ptr %7, align 8, !tbaa !4
  %41 = getelementptr inbounds nuw %struct.AVAES, ptr %40, i32 0, i32 1
  %42 = getelementptr inbounds [2 x %union.av_aes_block], ptr %41, i64 0, i64 0
  %43 = load ptr, ptr %7, align 8, !tbaa !4
  %44 = getelementptr inbounds nuw %struct.AVAES, ptr %43, i32 0, i32 0
  %45 = getelementptr inbounds [15 x %union.av_aes_block], ptr %44, i64 0, i64 0
  call void @addkey_d(ptr noundef %39, ptr noundef %42, ptr noundef %45)
  %46 = load ptr, ptr %11, align 8, !tbaa !9
  %47 = icmp ne ptr %46, null
  br i1 %47, label %48, label %51

48:                                               ; preds = %37
  %49 = load ptr, ptr %11, align 8, !tbaa !9
  %50 = load ptr, ptr %8, align 8, !tbaa !9
  call void @llvm.memcpy.p0.p0.i64(ptr align 1 %49, ptr align 1 %50, i64 16, i1 false)
  br label %51

51:                                               ; preds = %48, %37
  %52 = load ptr, ptr %9, align 8, !tbaa !9
  %53 = getelementptr inbounds i8, ptr %52, i64 16
  store ptr %53, ptr %9, align 8, !tbaa !9
  %54 = load ptr, ptr %8, align 8, !tbaa !9
  %55 = getelementptr inbounds i8, ptr %54, i64 16
  store ptr %55, ptr %8, align 8, !tbaa !9
  br label %13, !llvm.loop !27

56:                                               ; preds = %13
  ret void
}