; Function Attrs: nofree norecurse nosync nounwind memory(readwrite, inaccessiblemem: none) uwtable
define internal void @aes_encrypt(ptr noundef %0, ptr noundef captures(none) %1, ptr noundef readonly captures(none) %2, i32 noundef %3, ptr noundef captures(address_is_null) %4, i32 noundef %5) #3 {
  %.not21 = icmp eq i32 %3, 0
  br i1 %.not21, label %._crit_edge, label %.lr.ph

.lr.ph:                                           ; preds = %6
  %7 = add nsw i32 %3, -1
  %8 = getelementptr inbounds nuw i8, ptr %0, i64 240
  %9 = getelementptr inbounds nuw i8, ptr %0, i64 256
  %10 = sext i32 %5 to i64
  %11 = getelementptr inbounds [15 x %union.av_aes_block], ptr %0, i64 0, i64 %10
  %12 = getelementptr inbounds nuw i8, ptr %11, i64 8
  %13 = getelementptr inbounds nuw i8, ptr %0, i64 264
  %.not20 = icmp eq ptr %4, null
  %14 = getelementptr inbounds nuw i8, ptr %4, i64 8
  %15 = getelementptr inbounds nuw i8, ptr %0, i64 248
  %16 = getelementptr inbounds nuw i8, ptr %0, i64 8
  br i1 %.not20, label %.critedge.us, label %.lr.ph.split

.critedge.us:                                     ; preds = %.lr.ph, %.critedge.us
  %17 = phi i32 [ %34, %.critedge.us ], [ %7, %.lr.ph ]
  %.023.us = phi ptr [ %33, %.critedge.us ], [ %1, %.lr.ph ]
  %.01722.us = phi ptr [ %32, %.critedge.us ], [ %2, %.lr.ph ]
  %18 = load i64, ptr %.01722.us, align 1, !tbaa !11
  %19 = load i64, ptr %11, align 8, !tbaa !11
  %20 = xor i64 %19, %18
  store i64 %20, ptr %9, align 8, !tbaa !11
  %21 = getelementptr inbounds nuw i8, ptr %.01722.us, i64 8
  %22 = load i64, ptr %21, align 1, !tbaa !11
  %23 = load i64, ptr %12, align 8, !tbaa !11
  %24 = xor i64 %23, %22
  store i64 %24, ptr %13, align 8, !tbaa !11
  tail call fastcc void @aes_crypt(ptr noundef nonnull %0, i32 noundef 2, ptr noundef nonnull @sbox, ptr noundef nonnull @enc_multbl)
  %25 = load i64, ptr %8, align 8, !tbaa !11
  %26 = load i64, ptr %0, align 8, !tbaa !11
  %27 = xor i64 %26, %25
  store i64 %27, ptr %.023.us, align 1, !tbaa !11
  %28 = load i64, ptr %15, align 8, !tbaa !11
  %29 = load i64, ptr %16, align 8, !tbaa !11
  %30 = xor i64 %29, %28
  %31 = getelementptr inbounds nuw i8, ptr %.023.us, i64 8
  store i64 %30, ptr %31, align 1, !tbaa !11
  %32 = getelementptr inbounds nuw i8, ptr %.01722.us, i64 16
  %33 = getelementptr inbounds nuw i8, ptr %.023.us, i64 16
  %34 = add nsw i32 %17, -1
  %.not.us = icmp eq i32 %17, 0
  br i1 %.not.us, label %._crit_edge, label %.critedge.us, !llvm.loop !23

.lr.ph.split:                                     ; preds = %.lr.ph, %.lr.ph.split
  %35 = phi i32 [ %56, %.lr.ph.split ], [ %7, %.lr.ph ]
  %.023 = phi ptr [ %55, %.lr.ph.split ], [ %1, %.lr.ph ]
  %.01722 = phi ptr [ %54, %.lr.ph.split ], [ %2, %.lr.ph ]
  %36 = load i64, ptr %.01722, align 1, !tbaa !11
  %37 = load i64, ptr %11, align 8, !tbaa !11
  %38 = xor i64 %37, %36
  store i64 %38, ptr %9, align 8, !tbaa !11
  %39 = getelementptr inbounds nuw i8, ptr %.01722, i64 8
  %40 = load i64, ptr %39, align 1, !tbaa !11
  %41 = load i64, ptr %12, align 8, !tbaa !11
  %42 = xor i64 %41, %40
  store i64 %42, ptr %13, align 8, !tbaa !11
  %43 = load i64, ptr %4, align 1, !tbaa !11
  %44 = xor i64 %43, %38
  store i64 %44, ptr %9, align 8, !tbaa !11
  %45 = load i64, ptr %14, align 1, !tbaa !11
  %46 = xor i64 %45, %42
  store i64 %46, ptr %13, align 8, !tbaa !11
  tail call fastcc void @aes_crypt(ptr noundef nonnull %0, i32 noundef 2, ptr noundef nonnull @sbox, ptr noundef nonnull @enc_multbl)
  %47 = load i64, ptr %8, align 8, !tbaa !11
  %48 = load i64, ptr %0, align 8, !tbaa !11
  %49 = xor i64 %48, %47
  store i64 %49, ptr %.023, align 1, !tbaa !11
  %50 = load i64, ptr %15, align 8, !tbaa !11
  %51 = load i64, ptr %16, align 8, !tbaa !11
  %52 = xor i64 %51, %50
  %53 = getelementptr inbounds nuw i8, ptr %.023, i64 8
  store i64 %52, ptr %53, align 1, !tbaa !11
  tail call void @llvm.memcpy.p0.p0.i64(ptr noundef nonnull align 1 dereferenceable(16) %4, ptr noundef nonnull align 1 dereferenceable(16) %.023, i64 16, i1 false)
  %54 = getelementptr inbounds nuw i8, ptr %.01722, i64 16
  %55 = getelementptr inbounds nuw i8, ptr %.023, i64 16
  %56 = add nsw i32 %35, -1
  %.not = icmp eq i32 %35, 0
  br i1 %.not, label %._crit_edge, label %.lr.ph.split, !llvm.loop !23

._crit_edge:                                      ; preds = %.lr.ph.split, %.critedge.us, %6
  ret void
}